; Function Attrs: mustprogress null_pointer_is_valid sspstrong uwtable
define void @_ZN16EditorFileDialog13applyFilenameEv(ptr noundef align 8 dereferenceable_or_null(156) %0) #0 align 2 personality ptr @__gxx_personality_v0 {
  %2 = alloca %class.QString, align 8
  %3 = alloca %class.QString, align 8
  %4 = alloca %class.QString, align 8
  call void @llvm.lifetime.start.p0(i64 24, ptr nonnull %2) #12
  call void @llvm.memset.p0.i64(ptr noundef nonnull align 8 dereferenceable(24) dereferenceable_or_null(24) %2, i8 0, i64 24, i1 false)
  %5 = getelementptr inbounds nuw i8, ptr %0, i64 72
  %6 = load i32, ptr %5, align 8
  %7 = icmp eq i32 %6, 1
  %8 = getelementptr inbounds nuw i8, ptr %0, i64 80
  %9 = getelementptr inbounds nuw i8, ptr %0, i64 104
  br i1 %7, label %10, label %21

10:                                               ; preds = %1
  call void @llvm.lifetime.start.p0(i64 24, ptr nonnull %3) #12
  %11 = getelementptr inbounds nuw i8, ptr %0, i64 152
  %.sroa.01.0.copyload = load i32, ptr %11, align 8
  invoke void @_ZN19WiresharkFileDialog20getExistingDirectoryEP7QWidgetRK7QStringS4_6QFlagsIN11QFileDialog6OptionEE(ptr dead_on_unwind nonnull writable sret(%class.QString) align 8 %3, ptr noundef %0, ptr noundef nonnull align 8 dereferenceable(24) %8, ptr noundef nonnull align 8 dereferenceable(24) %9, i32 %.sroa.01.0.copyload)
          to label %_ZN7QStringD2Ev.exit unwind label %19

_ZN7QStringD2Ev.exit:                             ; preds = %10
  %12 = load ptr, ptr %3, align 8
  store ptr %12, ptr %2, align 8
  store ptr null, ptr %3, align 8
  %13 = getelementptr inbounds nuw i8, ptr %2, i64 8
  %14 = getelementptr inbounds nuw i8, ptr %3, i64 8
  %15 = load ptr, ptr %14, align 8
  store ptr %15, ptr %13, align 8
  store ptr null, ptr %14, align 8
  %16 = getelementptr inbounds nuw i8, ptr %2, i64 16
  %17 = getelementptr inbounds nuw i8, ptr %3, i64 16
  %18 = load i64, ptr %17, align 8
  store i64 %18, ptr %16, align 8
  call void @llvm.lifetime.end.p0(i64 24, ptr nonnull %3) #12
  br label %40

19:                                               ; preds = %10
  %20 = landingpad { ptr, i32 }
          cleanup
  call void @llvm.lifetime.end.p0(i64 24, ptr nonnull %3) #12
  br label %53

21:                                               ; preds = %1
  call void @llvm.lifetime.start.p0(i64 24, ptr nonnull %4) #12
  %22 = getelementptr inbounds nuw i8, ptr %0, i64 128
  %23 = getelementptr inbounds nuw i8, ptr %0, i64 152
  %.sroa.0.0.copyload = load i32, ptr %23, align 8
  invoke void @_ZN19WiresharkFileDialog15getOpenFileNameEP7QWidgetRK7QStringS4_S4_PS2_6QFlagsIN11QFileDialog6OptionEE(ptr dead_on_unwind nonnull writable sret(%class.QString) align 8 %4, ptr noundef %0, ptr noundef nonnull align 8 dereferenceable(24) %8, ptr noundef nonnull align 8 dereferenceable(24) %9, ptr noundef nonnull align 8 dereferenceable(24) %22, ptr noundef null, i32 %.sroa.0.0.copyload)
          to label %24 unwind label %38

24:                                               ; preds = %21
  %25 = load ptr, ptr %2, align 8
  %26 = load ptr, ptr %4, align 8
  store ptr %26, ptr %2, align 8
  store ptr %25, ptr %4, align 8
  %27 = getelementptr inbounds nuw i8, ptr %2, i64 8
  %28 = getelementptr inbounds nuw i8, ptr %4, i64 8
  %29 = load ptr, ptr %27, align 8
  %30 = load ptr, ptr %28, align 8
  store ptr %30, ptr %27, align 8
  store ptr %29, ptr %28, align 8
  %31 = getelementptr inbounds nuw i8, ptr %2, i64 16
  %32 = getelementptr inbounds nuw i8, ptr %4, i64 16
  %33 = load i64, ptr %31, align 8
  %34 = load i64, ptr %32, align 8
  store i64 %34, ptr %31, align 8
  store i64 %33, ptr %32, align 8
  %.not.i.i.i5 = icmp eq ptr %25, null
  br i1 %.not.i.i.i5, label %_ZN7QStringD2Ev.exit8, label %_ZN17QArrayDataPointerIDsE5derefEv.exit.i.i6

_ZN17QArrayDataPointerIDsE5derefEv.exit.i.i6:     ; preds = %24
  %35 = atomicrmw sub ptr %25, i32 1 seq_cst, align 4
  %.not.i.i7 = icmp eq i32 %35, 1
  br i1 %.not.i.i7, label %36, label %_ZN7QStringD2Ev.exit8

36:                                               ; preds = %_ZN17QArrayDataPointerIDsE5derefEv.exit.i.i6
  %37 = load ptr, ptr %4, align 8
  call void @_ZN10QArrayData10deallocateEPS_xx(ptr noundef %37, i64 noundef 2, i64 noundef 8) #12
  br label %_ZN7QStringD2Ev.exit8

_ZN7QStringD2Ev.exit8:                            ; preds = %24, %_ZN17QArrayDataPointerIDsE5derefEv.exit.i.i6, %36
  call void @llvm.lifetime.end.p0(i64 24, ptr nonnull %4) #12
  %.pre = load i64, ptr %31, align 8
  br label %40

38:                                               ; preds = %21
  %39 = landingpad { ptr, i32 }
          cleanup
  call void @llvm.lifetime.end.p0(i64 24, ptr nonnull %4) #12
  br label %53

40:                                               ; preds = %_ZN7QStringD2Ev.exit8, %_ZN7QStringD2Ev.exit
  %41 = phi i64 [ %.pre, %_ZN7QStringD2Ev.exit8 ], [ %18, %_ZN7QStringD2Ev.exit ]
  %42 = icmp eq i64 %41, 0
  br i1 %42, label %48, label %43

43:                                               ; preds = %40
  invoke void @_ZN9QLineEdit7setTextERK7QString(ptr noundef align 8 dereferenceable_or_null(40) %0, ptr noundef nonnull align 8 dereferenceable(24) %2)
          to label %44 unwind label %46

44:                                               ; preds = %43
  %45 = getelementptr inbounds nuw i8, ptr %0, i64 48
  invoke void @_ZN16EditorFileDialog10acceptEditERK11QModelIndex(ptr noundef align 8 dereferenceable_or_null(156) %0, ptr noundef nonnull align 8 dereferenceable(24) %45)
          to label %48 unwind label %46

46:                                               ; preds = %44, %43
  %47 = landingpad { ptr, i32 }
          cleanup
  br label %53

48:                                               ; preds = %44, %40
  %49 = load ptr, ptr %2, align 8
  %.not.i.i.i9 = icmp eq ptr %49, null
  br i1 %.not.i.i.i9, label %_ZN7QStringD2Ev.exit12, label %_ZN17QArrayDataPointerIDsE5derefEv.exit.i.i10

_ZN17QArrayDataPointerIDsE5derefEv.exit.i.i10:    ; preds = %48
  %50 = atomicrmw sub ptr %49, i32 1 seq_cst, align 4
  %.not.i.i11 = icmp eq i32 %50, 1
  br i1 %.not.i.i11, label %51, label %_ZN7QStringD2Ev.exit12

51:                                               ; preds = %_ZN17QArrayDataPointerIDsE5derefEv.exit.i.i10
  %52 = load ptr, ptr %2, align 8
  call void @_ZN10QArrayData10deallocateEPS_xx(ptr noundef %52, i64 noundef 2, i64 noundef 8) #12
  br label %_ZN7QStringD2Ev.exit12

_ZN7QStringD2Ev.exit12:                           ; preds = %48, %_ZN17QArrayDataPointerIDsE5derefEv.exit.i.i10, %51
  call void @llvm.lifetime.end.p0(i64 24, ptr nonnull %2) #12
  ret void

53:                                               ; preds = %46, %38, %19
  %.pn = phi { ptr, i32 } [ %47, %46 ], [ %20, %19 ], [ %39, %38 ]
  %54 = load ptr, ptr %2, align 8
  %.not.i.i.i13 = icmp eq ptr %54, null
  br i1 %.not.i.i.i13, label %_ZN7QStringD2Ev.exit16, label %_ZN17QArrayDataPointerIDsE5derefEv.exit.i.i14

_ZN17QArrayDataPointerIDsE5derefEv.exit.i.i14:    ; preds = %53
  %55 = atomicrmw sub ptr %54, i32 1 seq_cst, align 4
  %.not.i.i15 = icmp eq i32 %55, 1
  br i1 %.not.i.i15, label %56, label %_ZN7QStringD2Ev.exit16

56:                                               ; preds = %_ZN17QArrayDataPointerIDsE5derefEv.exit.i.i14
  %57 = load ptr, ptr %2, align 8
  call void @_ZN10QArrayData10deallocateEPS_xx(ptr noundef %57, i64 noundef 2, i64 noundef 8) #12
  br label %_ZN7QStringD2Ev.exit16

_ZN7QStringD2Ev.exit16:                           ; preds = %53, %_ZN17QArrayDataPointerIDsE5derefEv.exit.i.i14, %56
  call void @llvm.lifetime.end.p0(i64 24, ptr nonnull %2) #12
  resume { ptr, i32 } %.pn
}